; Function Attrs: mustprogress uwtable
define void @_ZNK4YAML7Emitter21PrepareIntegralStreamERNSt7__cxx1118basic_stringstreamIcSt11char_traitsIcESaIcEEE(ptr noundef nonnull readonly align 8 captures(none) dereferenceable(72) %0, ptr noundef nonnull align 8 dereferenceable(128) %1) local_unnamed_addr #0 align 2 {
  %3 = load ptr, ptr %0, align 8, !tbaa !3
  %4 = getelementptr inbounds nuw i8, ptr %3, i64 64
  %5 = load i32, ptr %4, align 4, !tbaa !65
  switch i32 %5, label %22 [
    i32 21, label %6
    i32 22, label %8
    i32 23, label %11
  ]

6:                                                ; preds = %2
  %7 = getelementptr inbounds nuw i8, ptr %1, i64 16
  br label %.sink.split

8:                                                ; preds = %2
  %9 = getelementptr inbounds nuw i8, ptr %1, i64 16
  %10 = tail call noundef nonnull align 8 dereferenceable(8) ptr @_ZSt16__ostream_insertIcSt11char_traitsIcEERSt13basic_ostreamIT_T0_ES6_PKS3_l(ptr noundef nonnull align 8 dereferenceable(8) %9, ptr noundef nonnull @.str.15, i64 noundef 2)
  br label %.sink.split

11:                                               ; preds = %2
  %12 = getelementptr inbounds nuw i8, ptr %1, i64 16
  %13 = tail call noundef nonnull align 8 dereferenceable(8) ptr @_ZSt16__ostream_insertIcSt11char_traitsIcEERSt13basic_ostreamIT_T0_ES6_PKS3_l(ptr noundef nonnull align 8 dereferenceable(8) %12, ptr noundef nonnull @.str.16, i64 noundef 1)
  br label %.sink.split

.sink.split:                                      ; preds = %6, %8, %11
  %.sink10 = phi ptr [ %12, %11 ], [ %9, %8 ], [ %7, %6 ]
  %.sink8 = phi i32 [ 64, %11 ], [ 8, %8 ], [ 2, %6 ]
  %14 = getelementptr inbounds nuw i8, ptr %1, i64 16
  %.sink12 = load ptr, ptr %.sink10, align 8, !tbaa !67
  %15 = getelementptr i8, ptr %.sink12, i64 -24
  %16 = load i64, ptr %15, align 8
  %17 = getelementptr inbounds i8, ptr %14, i64 %16
  %18 = getelementptr inbounds nuw i8, ptr %17, i64 24
  %19 = load i32, ptr %18, align 8, !tbaa !69
  %20 = and i32 %19, -75
  %21 = or disjoint i32 %20, %.sink8
  store i32 %21, ptr %18, align 4, !tbaa !78
  br label %22

22:                                               ; preds = %.sink.split, %2
  ret void
}